target datalayout = "e-m:e-p270:32:32-p271:32:32-p272:64:64-i64:64-i128:128-f80:128-n8:16:32:64-S128"
target triple = "x86_64-pc-linux-gnu"

%struct.strbuf = type { i64, i64, ptr }
%struct.repository = type { ptr, ptr, ptr, ptr, ptr, %struct.strmap, %struct.strmap, %struct.repo_path_cache, ptr, ptr, ptr, ptr, %struct.repo_settings, ptr, ptr, ptr, ptr, ptr, ptr, i32, i32, i32, ptr, ptr, i32, i32, i8 }
%struct.strmap = type { %struct.hashmap, ptr, i8 }
%struct.hashmap = type { ptr, ptr, ptr, i32, i32, i32, i32, i8 }
%struct.repo_path_cache = type { ptr, ptr, ptr, ptr, ptr, ptr, ptr }
%struct.repo_settings = type { i32, i32, i32, i32, i32, i32, i32, i32, i32, i32, i32, i32, ptr, i32, i32, i32, i32, i32, i32, i32, i64, i64, i64 }

@the_repository = external global ptr, align 8
@git_work_tree_initialized = internal global i32 0, align 4
@__const.set_git_work_tree.realpath = private unnamed_addr constant %struct.strbuf { i64 0, i64 0, ptr @strbuf_slopbuf }, align 8
@.str.55 = private unnamed_addr constant [85 x i8] c"internal error: work tree has already been set\0ACurrent worktree: %s\0ANew worktree: %s\00", align 1

; Function Attrs: nounwind uwtable
define dso_local void @set_git_work_tree(ptr noundef %0) #0 {
  %2 = alloca ptr, align 8
  %3 = alloca %struct.strbuf, align 8
  store ptr %0, ptr %2, align 8, !tbaa !4
  %4 = load i32, ptr @git_work_tree_initialized, align 4, !tbaa !9
  %5 = icmp ne i32 %4, 0
  br i1 %5, label %6, label %23

6:                                                ; preds = %1
  call void @llvm.lifetime.start.p0(i64 24, ptr %3) #13
  call void @llvm.memcpy.p0.p0.i64(ptr align 8 %3, ptr align 8 @__const.set_git_work_tree.realpath, i64 24, i1 false)
  %7 = load ptr, ptr %2, align 8, !tbaa !4
  %8 = call ptr @strbuf_realpath(ptr noundef %3, ptr noundef %7, i32 noundef 1)
  %9 = getelementptr inbounds nuw %struct.strbuf, ptr %3, i32 0, i32 2
  %10 = load ptr, ptr %9, align 8, !tbaa !18
  store ptr %10, ptr %2, align 8, !tbaa !4
  %11 = load ptr, ptr %2, align 8, !tbaa !4
  %12 = load ptr, ptr @the_repository, align 8, !tbaa !14
  %13 = getelementptr inbounds nuw %struct.repository, ptr %12, i32 0, i32 10
  %14 = load ptr, ptr %13, align 8, !tbaa !72
  %15 = call i32 @strcmp(ptr noundef %11, ptr noundef %14) #14
  %16 = icmp ne i32 %15, 0
  br i1 %16, label %17, label %22

17:                                               ; preds = %6
  %18 = load ptr, ptr @the_repository, align 8, !tbaa !14
  %19 = getelementptr inbounds nuw %struct.repository, ptr %18, i32 0, i32 10
  %20 = load ptr, ptr %19, align 8, !tbaa !72
  %21 = load ptr, ptr %2, align 8, !tbaa !4
  call void (ptr, ...) @die(ptr noundef @.str.55, ptr noundef %20, ptr noundef %21) #15
  unreachable

22:                                               ; preds = %6
  call void @strbuf_release(ptr noundef %3)
  call void @llvm.lifetime.end.p0(i64 24, ptr %3) #13
  br label %26

23:                                               ; preds = %1
  store i32 1, ptr @git_work_tree_initialized, align 4, !tbaa !9
  %24 = load ptr, ptr @the_repository, align 8, !tbaa !14
  %25 = load ptr, ptr %2, align 8, !tbaa !4
  call void @repo_set_worktree(ptr noundef %24, ptr noundef %25)
  br label %26

26:                                               ; preds = %23, %22
  ret void
}