; Function Attrs: nounwind uwtable
define dso_local void @set_git_work_tree(ptr noundef %0) local_unnamed_addr #0 {
  %2 = alloca %struct.strbuf, align 8
  %.b = load i1, ptr @git_work_tree_initialized, align 4
  br i1 %.b, label %3, label %13

3:                                                ; preds = %1
  call void @llvm.lifetime.start.p0(i64 24, ptr nonnull %2) #25
  call void @llvm.memcpy.p0.p0.i64(ptr noundef nonnull align 8 dereferenceable(24) %2, ptr noundef nonnull align 8 dereferenceable(24) @__const.create_object_directory.path, i64 24, i1 false)
  %4 = call ptr @strbuf_realpath(ptr noundef nonnull %2, ptr noundef %0, i32 noundef 1) #25
  %5 = getelementptr inbounds nuw i8, ptr %2, i64 16
  %6 = load ptr, ptr %5, align 8, !tbaa !14
  %7 = load ptr, ptr @the_repository, align 8, !tbaa !9
  %8 = getelementptr inbounds nuw i8, ptr %7, i64 240
  %9 = load ptr, ptr %8, align 8, !tbaa !73
  %10 = call i32 @strcmp(ptr noundef nonnull dereferenceable(1) %6, ptr noundef nonnull dereferenceable(1) %9) #24
  %.not = icmp eq i32 %10, 0
  br i1 %.not, label %12, label %11

11:                                               ; preds = %3
  call void (ptr, ...) @die(ptr noundef nonnull @.str.55, ptr noundef nonnull %9, ptr noundef nonnull %6) #26
  unreachable

12:                                               ; preds = %3
  call void @strbuf_release(ptr noundef nonnull %2) #25
  call void @llvm.lifetime.end.p0(i64 24, ptr nonnull %2) #25
  br label %15

13:                                               ; preds = %1
  store i1 true, ptr @git_work_tree_initialized, align 4
  %14 = load ptr, ptr @the_repository, align 8, !tbaa !9
  tail call void @repo_set_worktree(ptr noundef %14, ptr noundef %0) #25
  br label %15

15:                                               ; preds = %13, %12
  ret void
}